target datalayout = "e-m:e-p270:32:32-p271:32:32-p272:64:64-i64:64-i128:128-f80:128-n8:16:32:64-S128"
target triple = "x86_64-unknown-linux-gnu"

%struct.SemihostingConsole = type { %struct.CharBackend, ptr, ptr, i8, %struct.Fifo8 }
%struct.CharBackend = type { ptr, ptr, ptr, ptr, ptr, ptr, i32, i32 }
%struct.Fifo8 = type { ptr, i32, i32, i32 }

@.str = private unnamed_addr constant [30 x i8] c"../qemu/semihosting/console.c\00", align 1
@.str.1 = private unnamed_addr constant [29 x i8] c"qemu_mutex_iothread_locked()\00", align 1
@__func__.console_read = private unnamed_addr constant [13 x i8] c"console_read\00", align 1

; Function Attrs: nounwind sspstrong uwtable
define internal void @console_read(ptr noundef %opaque, ptr noundef %buf, i32 noundef %size) #0 {
entry:
  %opaque.addr = alloca ptr, align 8
  %buf.addr = alloca ptr, align 8
  %size.addr = alloca i32, align 4
  %c = alloca ptr, align 8
  store ptr %opaque, ptr %opaque.addr, align 8
  store ptr %buf, ptr %buf.addr, align 8
  store i32 %size, ptr %size.addr, align 4
  %0 = load ptr, ptr %opaque.addr, align 8
  store ptr %0, ptr %c, align 8
  br label %do.body

do.body:                                          ; preds = %entry
  %call = call zeroext i1 @qemu_mutex_iothread_locked()
  br i1 %call, label %if.then, label %if.else

if.then:                                          ; preds = %do.body
  br label %if.end

if.else:                                          ; preds = %do.body
  call void @g_assertion_message_expr(ptr noundef null, ptr noundef @.str, i32 noundef 61, ptr noundef @__func__.console_read, ptr noundef @.str.1) #3
  unreachable

if.end:                                           ; preds = %if.then
  br label %do.end

do.end:                                           ; preds = %if.end
  br label %while.cond

while.cond:                                       ; preds = %while.body, %do.end
  %1 = load i32, ptr %size.addr, align 4
  %dec = add i32 %1, -1
  store i32 %dec, ptr %size.addr, align 4
  %tobool = icmp ne i32 %1, 0
  br i1 %tobool, label %land.rhs, label %land.end

land.rhs:                                         ; preds = %while.cond
  %2 = load ptr, ptr %c, align 8
  %fifo = getelementptr inbounds %struct.SemihostingConsole, ptr %2, i32 0, i32 4
  %call1 = call zeroext i1 @fifo8_is_full(ptr noundef %fifo)
  %lnot = xor i1 %call1, true
  br label %land.end

land.end:                                         ; preds = %land.rhs, %while.cond
  %3 = phi i1 [ false, %while.cond ], [ %lnot, %land.rhs ]
  br i1 %3, label %while.body, label %while.end

while.body:                                       ; preds = %land.end
  %4 = load ptr, ptr %c, align 8
  %fifo2 = getelementptr inbounds %struct.SemihostingConsole, ptr %4, i32 0, i32 4
  %5 = load ptr, ptr %buf.addr, align 8
  %incdec.ptr = getelementptr i8, ptr %5, i32 1
  store ptr %incdec.ptr, ptr %buf.addr, align 8
  %6 = load i8, ptr %5, align 1
  call void @fifo8_push(ptr noundef %fifo2, i8 noundef zeroext %6)
  br label %while.cond, !llvm.loop !7

while.end:                                        ; preds = %land.end
  %7 = load ptr, ptr %c, align 8
  %sleeping_cpus = getelementptr inbounds %struct.SemihostingConsole, ptr %7, i32 0, i32 2
  %8 = load ptr, ptr %sleeping_cpus, align 8
  call void @g_slist_foreach(ptr noundef %8, ptr noundef @console_wake_up, ptr noundef null)
  %9 = load ptr, ptr %c, align 8
  %sleeping_cpus3 = getelementptr inbounds %struct.SemihostingConsole, ptr %9, i32 0, i32 2
  store ptr null, ptr %sleeping_cpus3, align 8
  ret void
}