; Function Attrs: nounwind sspstrong uwtable
define internal void @console_read(ptr noundef %opaque, ptr noundef readonly captures(none) %buf, i32 noundef %size) #0 {
entry:
  %call = tail call zeroext i1 @qemu_mutex_iothread_locked() #5
  br i1 %call, label %while.cond.preheader, label %if.else

while.cond.preheader:                             ; preds = %entry
  %tobool.not5 = icmp eq i32 %size, 0
  br i1 %tobool.not5, label %while.end, label %land.rhs.lr.ph

land.rhs.lr.ph:                                   ; preds = %while.cond.preheader
  %fifo = getelementptr inbounds nuw i8, ptr %opaque, i64 80
  br label %land.rhs

if.else:                                          ; preds = %entry
  tail call void @g_assertion_message_expr(ptr noundef null, ptr noundef nonnull @.str, i32 noundef 61, ptr noundef nonnull @__func__.console_read, ptr noundef nonnull @.str.1) #6
  unreachable

land.rhs:                                         ; preds = %land.rhs.lr.ph, %while.body
  %dec7.in = phi i32 [ %size, %land.rhs.lr.ph ], [ %dec7, %while.body ]
  %buf.addr.06 = phi ptr [ %buf, %land.rhs.lr.ph ], [ %incdec.ptr, %while.body ]
  %call1 = tail call zeroext i1 @fifo8_is_full(ptr noundef nonnull %fifo) #5
  br i1 %call1, label %while.end, label %while.body

while.body:                                       ; preds = %land.rhs
  %dec7 = add i32 %dec7.in, -1
  %incdec.ptr = getelementptr i8, ptr %buf.addr.06, i64 1
  %0 = load i8, ptr %buf.addr.06, align 1
  tail call void @fifo8_push(ptr noundef nonnull %fifo, i8 noundef zeroext %0) #5
  %tobool.not = icmp eq i32 %dec7, 0
  br i1 %tobool.not, label %while.end, label %land.rhs, !llvm.loop !7

while.end:                                        ; preds = %land.rhs, %while.body, %while.cond.preheader
  %sleeping_cpus = getelementptr inbounds nuw i8, ptr %opaque, i64 64
  %1 = load ptr, ptr %sleeping_cpus, align 8
  tail call void @g_slist_foreach(ptr noundef %1, ptr noundef nonnull @console_wake_up, ptr noundef null) #5
  store ptr null, ptr %sleeping_cpus, align 8
  ret void
}